; Function Attrs: nounwind uwtable
define i64 @H5Sget_select_elem_npoints(i64 noundef %0) local_unnamed_addr #0 {
  %2 = alloca %struct.H5CX_node_t, align 8
  call void @llvm.lifetime.start.p0(i64 480, ptr nonnull %2) #15
  call void @llvm.memset.p0.i64(ptr noundef nonnull align 8 dereferenceable(480) %2, i8 0, i64 480, i1 false)
  %3 = load i8, ptr @H5_libinit_g, align 1, !tbaa !3, !range !7, !noundef !8
  %4 = trunc nuw i8 %3 to i1
  %5 = load i8, ptr @H5_libterm_g, align 1, !range !7
  %6 = trunc nuw i8 %5 to i1
  %7 = select i1 %4, i1 true, i1 %6
  br i1 %7, label %15, label %8, !prof !9

8:                                                ; preds = %1
  %9 = tail call i32 @H5_init_library() #15
  %10 = icmp slt i32 %9, 0
  br i1 %10, label %11, label %._crit_edge, !prof !81

._crit_edge:                                      ; preds = %8
  %.pre = load i8, ptr @H5_libterm_g, align 1, !range !7
  br label %15

11:                                               ; preds = %8
  %12 = load i64, ptr @H5E_FUNC_g, align 8, !tbaa !21
  %13 = load i64, ptr @H5E_CANTINIT_g, align 8, !tbaa !21
  %14 = tail call i32 (ptr, ptr, i32, i64, i64, ptr, ...) @H5E_printf_stack(ptr noundef nonnull @.str, ptr noundef nonnull @__func__.H5Sget_select_elem_npoints, i32 noundef 1006, i64 noundef %12, i64 noundef %13, ptr noundef nonnull @.str.5) #15
  br label %.thread21

15:                                               ; preds = %._crit_edge, %1
  %16 = phi i8 [ %.pre, %._crit_edge ], [ %5, %1 ]
  %17 = load i8, ptr @H5S_init_g, align 1, !tbaa !3, !range !7, !noundef !8
  %18 = trunc nuw i8 %17 to i1
  %19 = trunc nuw i8 %16 to i1
  %20 = select i1 %18, i1 true, i1 %19
  br i1 %20, label %28, label %21, !prof !9

21:                                               ; preds = %15
  store i8 1, ptr @H5S_init_g, align 1, !tbaa !3
  %22 = tail call i32 @H5S__init_package() #15
  %23 = icmp slt i32 %22, 0
  br i1 %23, label %24, label %28, !prof !82

24:                                               ; preds = %21
  store i8 0, ptr @H5S_init_g, align 1, !tbaa !3
  %25 = load i64, ptr @H5E_FUNC_g, align 8, !tbaa !21
  %26 = load i64, ptr @H5E_CANTINIT_g, align 8, !tbaa !21
  %27 = tail call i32 (ptr, ptr, i32, i64, i64, ptr, ...) @H5E_printf_stack(ptr noundef nonnull @.str, ptr noundef nonnull @__func__.H5Sget_select_elem_npoints, i32 noundef 1006, i64 noundef %25, i64 noundef %26, ptr noundef nonnull @.str.1) #15
  br label %.thread21

28:                                               ; preds = %15, %21
  %29 = call i32 @H5CX_push(ptr noundef nonnull %2) #15
  %30 = icmp slt i32 %29, 0
  br i1 %30, label %31, label %35, !prof !81

31:                                               ; preds = %28
  %32 = load i64, ptr @H5E_FUNC_g, align 8, !tbaa !21
  %33 = load i64, ptr @H5E_CANTSET_g, align 8, !tbaa !21
  %34 = call i32 (ptr, ptr, i32, i64, i64, ptr, ...) @H5E_printf_stack(ptr noundef nonnull @.str, ptr noundef nonnull @__func__.H5Sget_select_elem_npoints, i32 noundef 1006, i64 noundef %32, i64 noundef %33, ptr noundef nonnull @.str.6) #15
  br label %.thread21

35:                                               ; preds = %28
  %36 = call i32 @H5E_clear_stack() #15
  %37 = call ptr @H5I_object_verify(i64 noundef %0, i32 noundef 4) #15
  %38 = icmp eq ptr %37, null
  br i1 %38, label %39, label %43, !prof !83

39:                                               ; preds = %35
  %40 = load i64, ptr @H5E_ARGS_g, align 8, !tbaa !21
  %41 = load i64, ptr @H5E_BADTYPE_g, align 8, !tbaa !21
  %42 = call i32 (ptr, ptr, i32, i64, i64, ptr, ...) @H5E_printf_stack(ptr noundef nonnull @.str, ptr noundef nonnull @__func__.H5Sget_select_elem_npoints, i32 noundef 1010, i64 noundef %40, i64 noundef %41, ptr noundef nonnull @.str.7) #15
  br label %.thread27

43:                                               ; preds = %35
  %44 = getelementptr inbounds nuw i8, ptr %37, i64 80
  %45 = load ptr, ptr %44, align 8, !tbaa !34
  %46 = load i32, ptr %45, align 8, !tbaa !35
  %.not = icmp eq i32 %46, 1
  br i1 %.not, label %52, label %47, !prof !84

47:                                               ; preds = %43
  %48 = load i64, ptr @H5E_ARGS_g, align 8, !tbaa !21
  %49 = load i64, ptr @H5E_BADTYPE_g, align 8, !tbaa !21
  %50 = call i32 (ptr, ptr, i32, i64, i64, ptr, ...) @H5E_printf_stack(ptr noundef nonnull @.str, ptr noundef nonnull @__func__.H5Sget_select_elem_npoints, i32 noundef 1012, i64 noundef %48, i64 noundef %49, ptr noundef nonnull @.str.8) #15
  br label %.thread27

.thread27:                                        ; preds = %47, %39
  %51 = call i32 @H5CX_pop(i1 noundef zeroext true) #15
  br label %.thread21

52:                                               ; preds = %43
  %53 = getelementptr inbounds nuw i8, ptr %37, i64 352
  %54 = load i64, ptr %53, align 8, !tbaa !31
  %55 = call i32 @H5CX_pop(i1 noundef zeroext true) #15
  br label %57

.thread21:                                        ; preds = %31, %24, %11, %.thread27
  %56 = call i32 @H5E_dump_api_stack() #15
  br label %57

57:                                               ; preds = %52, %.thread21
  %.0111624 = phi i64 [ -1, %.thread21 ], [ %54, %52 ]
  call void @llvm.lifetime.end.p0(i64 480, ptr nonnull %2) #15
  ret i64 %.0111624
}